; Function Attrs: mustprogress uwtable
define dso_local noundef i32 @_ZN22cmCTestCoverageHandler17HandlePHPCoverageEP31cmCTestCoverageHandlerContainer(ptr nocapture noundef nonnull readonly align 8 dereferenceable(576) %0, ptr noundef nonnull %1) local_unnamed_addr #3 align 2 personality ptr @__gxx_personality_v0 {
  %3 = alloca %class.cmParsePHPCoverage, align 8
  %4 = alloca %"class.std::__cxx11::basic_string", align 8
  %5 = alloca %"class.std::__cxx11::basic_string", align 8
  %6 = getelementptr inbounds i8, ptr %0, i64 32
  %7 = load ptr, ptr %6, align 8
  call void @_ZN18cmParsePHPCoverageC1ER31cmCTestCoverageHandlerContainerP7cmCTest(ptr noundef nonnull align 8 dereferenceable(16) %3, ptr noundef nonnull align 8 dereferenceable(129) %1, ptr noundef %7)
  %8 = load ptr, ptr %6, align 8
  call void @_ZN7cmCTest12GetBinaryDirB5cxx11Ev(ptr dead_on_unwind nonnull writable sret(%"class.std::__cxx11::basic_string") align 8 %5, ptr noundef nonnull align 8 dereferenceable(8) %8)
  %9 = invoke noundef nonnull align 8 dereferenceable(32) ptr @_ZNSt7__cxx1112basic_stringIcSt11char_traitsIcESaIcEE6appendEPKc(ptr noundef nonnull align 8 dereferenceable(32) %5, ptr noundef nonnull @.str.75)
          to label %10 unwind label %16

10:                                               ; preds = %2
  call void @_ZNSt7__cxx1112basic_stringIcSt11char_traitsIcESaIcEEC1EOS4_(ptr noundef nonnull align 8 dereferenceable(32) %4, ptr noundef nonnull align 8 dereferenceable(32) %9) #19
  call void @_ZNSt7__cxx1112basic_stringIcSt11char_traitsIcESaIcEED1Ev(ptr noundef nonnull align 8 dereferenceable(32) %5) #19
  %11 = invoke noundef zeroext i1 @_ZN5cmsys11SystemTools15FileIsDirectoryERKNSt7__cxx1112basic_stringIcSt11char_traitsIcESaIcEEE(ptr noundef nonnull align 8 dereferenceable(32) %4)
          to label %12 unwind label %18

12:                                               ; preds = %10
  br i1 %11, label %13, label %20

13:                                               ; preds = %12
  %14 = call noundef ptr @_ZNKSt7__cxx1112basic_stringIcSt11char_traitsIcESaIcEE5c_strEv(ptr noundef nonnull align 8 dereferenceable(32) %4) #19
  %15 = invoke noundef zeroext i1 @_ZN18cmParsePHPCoverage24ReadPHPCoverageDirectoryEPKc(ptr noundef nonnull align 8 dereferenceable(16) %3, ptr noundef %14)
          to label %20 unwind label %18

16:                                               ; preds = %2
  %17 = landingpad { ptr, i32 }
          cleanup
  br label %24

18:                                               ; preds = %13, %10
  %19 = landingpad { ptr, i32 }
          cleanup
  br label %24

20:                                               ; preds = %13, %12
  %21 = getelementptr inbounds i8, ptr %1, i64 112
  %22 = load i64, ptr %21, align 8
  %23 = trunc i64 %22 to i32
  call void @_ZNSt7__cxx1112basic_stringIcSt11char_traitsIcESaIcEED1Ev(ptr noundef nonnull align 8 dereferenceable(32) %4) #19
  ret i32 %23

24:                                               ; preds = %18, %16
  %.sink = phi ptr [ %4, %18 ], [ %5, %16 ]
  %.pn = phi { ptr, i32 } [ %19, %18 ], [ %17, %16 ]
  call void @_ZNSt7__cxx1112basic_stringIcSt11char_traitsIcESaIcEED1Ev(ptr noundef nonnull align 8 dereferenceable(32) %.sink) #19
  resume { ptr, i32 } %.pn
}